; Function Attrs: nounwind uwtable
define internal noundef i32 @_WriteByte(ptr noundef readonly captures(none) %0, i32 noundef %1) #0 {
  %3 = getelementptr inbounds nuw i8, ptr %0, i64 488
  %4 = load ptr, ptr %3, align 8
  %5 = tail call i32 @fputc(i32 noundef %1, ptr noundef %4)
  %6 = icmp eq i32 %5, -1
  br i1 %6, label %7, label %8

7:                                                ; preds = %2
  tail call void (i32, i32, ptr, ...) @pg_log_generic(i32 noundef 4, i32 noundef 0, ptr noundef nonnull @.str.18) #7
  tail call void @exit_nicely(i32 noundef 1) #8
  unreachable

8:                                                ; preds = %2
  ret i32 1
}